target datalayout = "e-m:e-p270:32:32-p271:32:32-p272:64:64-i64:64-i128:128-f80:128-n8:16:32:64-S128"
target triple = "x86_64-pc-linux-gnu"

; Function Attrs: mustprogress uwtable
define noundef signext i8 @_ZN6icu_7712PropNameData12containsNameERNS_9BytesTrieEPKc(ptr noundef nonnull align 8 dereferenceable(28) %0, ptr noundef %1) #0 align 2 {
  %3 = alloca i8, align 1
  %4 = alloca ptr, align 8
  %5 = alloca ptr, align 8
  %6 = alloca i32, align 4
  %7 = alloca i8, align 1
  %8 = alloca i32, align 4
  store ptr %0, ptr %4, align 8, !tbaa !20
  store ptr %1, ptr %5, align 8, !tbaa !3
  %9 = load ptr, ptr %5, align 8, !tbaa !3
  %10 = icmp eq ptr %9, null
  br i1 %10, label %11, label %12

11:                                               ; preds = %2
  store i8 0, ptr %3, align 1
  br label %57

12:                                               ; preds = %2
  call void @llvm.lifetime.start.p0(i64 4, ptr %6) #7
  store i32 1, ptr %6, align 4, !tbaa !22
  call void @llvm.lifetime.start.p0(i64 1, ptr %7) #7
  br label %13

13:                                               ; preds = %47, %41, %12
  %14 = load ptr, ptr %5, align 8, !tbaa !3
  %15 = getelementptr inbounds nuw i8, ptr %14, i32 1
  store ptr %15, ptr %5, align 8, !tbaa !3
  %16 = load i8, ptr %14, align 1, !tbaa !12
  store i8 %16, ptr %7, align 1, !tbaa !12
  %17 = sext i8 %16 to i32
  %18 = icmp ne i32 %17, 0
  br i1 %18, label %19, label %52

19:                                               ; preds = %13
  %20 = load i8, ptr %7, align 1, !tbaa !12
  %21 = call signext i8 @uprv_asciitolower_77(i8 noundef signext %20)
  store i8 %21, ptr %7, align 1, !tbaa !12
  %22 = load i8, ptr %7, align 1, !tbaa !12
  %23 = sext i8 %22 to i32
  %24 = icmp eq i32 %23, 45
  br i1 %24, label %41, label %25

25:                                               ; preds = %19
  %26 = load i8, ptr %7, align 1, !tbaa !12
  %27 = sext i8 %26 to i32
  %28 = icmp eq i32 %27, 95
  br i1 %28, label %41, label %29

29:                                               ; preds = %25
  %30 = load i8, ptr %7, align 1, !tbaa !12
  %31 = sext i8 %30 to i32
  %32 = icmp eq i32 %31, 32
  br i1 %32, label %41, label %33

33:                                               ; preds = %29
  %34 = load i8, ptr %7, align 1, !tbaa !12
  %35 = sext i8 %34 to i32
  %36 = icmp sle i32 9, %35
  br i1 %36, label %37, label %42

37:                                               ; preds = %33
  %38 = load i8, ptr %7, align 1, !tbaa !12
  %39 = sext i8 %38 to i32
  %40 = icmp sle i32 %39, 13
  br i1 %40, label %41, label %42

41:                                               ; preds = %37, %29, %25, %19
  br label %13, !llvm.loop !24

42:                                               ; preds = %37, %33
  %43 = load i32, ptr %6, align 4, !tbaa !22
  %44 = and i32 %43, 1
  %45 = icmp ne i32 %44, 0
  br i1 %45, label %47, label %46

46:                                               ; preds = %42
  store i8 0, ptr %3, align 1
  store i32 1, ptr %8, align 4
  br label %56

47:                                               ; preds = %42
  %48 = load ptr, ptr %4, align 8, !tbaa !20
  %49 = load i8, ptr %7, align 1, !tbaa !12
  %50 = zext i8 %49 to i32
  %51 = call noundef i32 @_ZN6icu_779BytesTrie4nextEi(ptr noundef nonnull align 8 dereferenceable(28) %48, i32 noundef %50)
  store i32 %51, ptr %6, align 4, !tbaa !22
  br label %13, !llvm.loop !24

52:                                               ; preds = %13
  %53 = load i32, ptr %6, align 4, !tbaa !22
  %54 = icmp sge i32 %53, 2
  %55 = zext i1 %54 to i8
  store i8 %55, ptr %3, align 1
  store i32 1, ptr %8, align 4
  br label %56

56:                                               ; preds = %52, %46
  call void @llvm.lifetime.end.p0(i64 1, ptr %7) #7
  call void @llvm.lifetime.end.p0(i64 4, ptr %6) #7
  br label %57

57:                                               ; preds = %56, %11
  %58 = load i8, ptr %3, align 1
  ret i8 %58
}