; Function Attrs: mustprogress uwtable
define noundef signext range(i8 0, 2) i8 @_ZN6icu_7712PropNameData12containsNameERNS_9BytesTrieEPKc(ptr noundef nonnull align 8 dereferenceable(28) %0, ptr noundef readonly %1) local_unnamed_addr #0 align 2 {
  %3 = icmp eq ptr %1, null
  br i1 %3, label %.loopexit, label %.preheader

.preheader:                                       ; preds = %2
  %4 = load i8, ptr %1, align 1, !tbaa !3
  %.not2830 = icmp eq i8 %4, 0
  br i1 %.not2830, label %.outer._crit_edge, label %.lr.ph

.lr.ph:                                           ; preds = %.preheader, %.outer
  %5 = phi i8 [ %18, %.outer ], [ %4, %.preheader ]
  %.lcssa25.pn = phi ptr [ %8, %.outer ], [ %1, %.preheader ]
  %.0.ph31 = phi i32 [ %17, %.outer ], [ 1, %.preheader ]
  br label %6

6:                                                ; preds = %.lr.ph, %12
  %7 = phi i8 [ %5, %.lr.ph ], [ %13, %12 ]
  %.lcssa25.pn.pn = phi ptr [ %.lcssa25.pn, %.lr.ph ], [ %8, %12 ]
  %8 = getelementptr inbounds nuw i8, ptr %.lcssa25.pn.pn, i64 1
  %9 = tail call signext i8 @uprv_asciitolower_77(i8 noundef signext %7)
  switch i8 %9, label %10 [
    i8 95, label %12
    i8 45, label %12
    i8 32, label %12
  ]

10:                                               ; preds = %6
  %11 = add i8 %9, -9
  %or.cond8 = icmp ult i8 %11, 5
  br i1 %or.cond8, label %12, label %14

12:                                               ; preds = %6, %6, %6, %10
  %13 = load i8, ptr %8, align 1, !tbaa !3
  %.not = icmp eq i8 %13, 0
  br i1 %.not, label %.outer._crit_edge, label %6, !llvm.loop !16

14:                                               ; preds = %10
  %15 = and i32 %.0.ph31, 1
  %.not24 = icmp eq i32 %15, 0
  br i1 %.not24, label %.loopexit, label %.outer

.outer:                                           ; preds = %14
  %16 = zext i8 %9 to i32
  %17 = tail call noundef i32 @_ZN6icu_779BytesTrie4nextEi(ptr noundef nonnull align 8 dereferenceable(28) %0, i32 noundef %16)
  %18 = load i8, ptr %8, align 1, !tbaa !3
  %.not28 = icmp eq i8 %18, 0
  br i1 %.not28, label %.outer._crit_edge, label %.lr.ph, !llvm.loop !16

.outer._crit_edge:                                ; preds = %.outer, %12, %.preheader
  %.0.ph.lcssa27 = phi i32 [ 1, %.preheader ], [ %.0.ph31, %12 ], [ %17, %.outer ]
  %19 = icmp sgt i32 %.0.ph.lcssa27, 1
  %20 = zext i1 %19 to i8
  br label %.loopexit

.loopexit:                                        ; preds = %14, %.outer._crit_edge, %2
  %.021 = phi i8 [ 0, %2 ], [ %20, %.outer._crit_edge ], [ 0, %14 ]
  ret i8 %.021
}